; Function Attrs: mustprogress uwtable
define dso_local void @_ZNK3dap4json17JsonCppSerializer4dumpB5cxx11Ev(ptr dead_on_unwind noalias writable sret(%"class.std::__cxx11::basic_string") align 8 %0, ptr nocapture noundef nonnull readonly align 8 dereferenceable(18) %1) local_unnamed_addr #0 align 2 personality ptr @__gxx_personality_v0 {
  %3 = alloca %"class.Json::StreamWriterBuilder", align 8
  call void @_ZN4Json19StreamWriterBuilderC1Ev(ptr noundef nonnull align 8 dereferenceable(48) %3)
  %4 = getelementptr inbounds i8, ptr %1, i64 8
  %5 = load ptr, ptr %4, align 8
  invoke void @_ZN4Json11writeStringB5cxx11ERKNS_12StreamWriter7FactoryERKNS_5ValueE(ptr dead_on_unwind writable sret(%"class.std::__cxx11::basic_string") align 8 %0, ptr noundef nonnull align 8 dereferenceable(8) %3, ptr noundef nonnull align 8 dereferenceable(40) %5)
          to label %6 unwind label %7

6:                                                ; preds = %2
  call void @_ZN4Json19StreamWriterBuilderD1Ev(ptr noundef nonnull align 8 dereferenceable(48) %3) #21
  ret void

7:                                                ; preds = %2
  %8 = landingpad { ptr, i32 }
          cleanup
  call void @_ZN4Json19StreamWriterBuilderD1Ev(ptr noundef nonnull align 8 dereferenceable(48) %3) #21
  resume { ptr, i32 } %8
}